(dp0
S'map'
p1
(lp2
(I3
I1
S'D'
p3
tp4
a(I1
I1
g3
tp5
a(I2
I1
g3
tp6
asS'power'
p7
(lp8
sS'f'
p9
(lp10
sS'number'
p11
F0.0
sS's'
p12
(lp13
(I1
I1
S'A'
p14
g14
I1
tp15
a(I1
I1
S'C'
p16
g16
I7
tp17
a(I1
I1
S'B'
p18
g18
I1
tp19
a(I1
I1
g3
g3
I7
tp20
a(I2
I1
g3
g3
I10
tp21
asS'time'
p22
F0.1869649887084961
s.